target datalayout = "e-m:e-p270:32:32-p271:32:32-p272:64:64-i64:64-i128:128-f80:128-n8:16:32:64-S128"
target triple = "x86_64-pc-linux-gnu"

%"struct.google::protobuf::Metadata" = type { ptr, ptr }
%"struct.google::protobuf::internal::DescriptorTable" = type { i8, i8, ptr, ptr, i32, ptr, ptr, ptr, i32, i32, ptr, ptr, ptr, ptr, i32, ptr, ptr }

; Function Attrs: mustprogress uwtable
define linkonce_odr dso_local { ptr, ptr } @_ZN4onnx10ModelProto17GetMetadataStaticEv() #4 comdat align 2 {
  %1 = alloca %"struct.google::protobuf::Metadata", align 8
  call void @_ZN6google8protobuf8internal17AssignDescriptorsEPKNS1_15DescriptorTableEb(ptr noundef @descriptor_table_onnx_2eproto, i1 noundef zeroext false)
  %2 = load ptr, ptr getelementptr inbounds nuw (%"struct.google::protobuf::internal::DescriptorTable", ptr @descriptor_table_onnx_2eproto, i32 0, i32 13), align 8, !tbaa !173
  %3 = getelementptr inbounds %"struct.google::protobuf::Metadata", ptr %2, i64 3
  call void @llvm.memcpy.p0.p0.i64(ptr align 8 %1, ptr align 8 %3, i64 16, i1 false), !tbaa.struct !183
  %4 = load { ptr, ptr }, ptr %1, align 8
  ret { ptr, ptr } %4
}

; Function Attrs: mustprogress uwtable
define dso_local { ptr, ptr } @_ZNK4onnx10ModelProto11GetMetadataEv(ptr noundef nonnull align 8 dereferenceable(128) %0) unnamed_addr #4 align 2 {
  %2 = alloca %"struct.google::protobuf::Metadata", align 8
  %3 = alloca ptr, align 8
  store ptr %0, ptr %3, align 8, !tbaa !230
  %4 = call { ptr, ptr } @_ZN4onnx10ModelProto17GetMetadataStaticEv()
  %5 = getelementptr inbounds nuw { ptr, ptr }, ptr %2, i32 0, i32 0
  %6 = extractvalue { ptr, ptr } %4, 0
  store ptr %6, ptr %5, align 8
  %7 = getelementptr inbounds nuw { ptr, ptr }, ptr %2, i32 0, i32 1
  %8 = extractvalue { ptr, ptr } %4, 1
  store ptr %8, ptr %7, align 8
  %9 = load { ptr, ptr }, ptr %2, align 8
  ret { ptr, ptr } %9
}