; Function Attrs: mustprogress uwtable
define dso_local { ptr, ptr } @_ZNK4onnx10ModelProto11GetMetadataEv(ptr nonnull readnone align 8 captures(none) %0) unnamed_addr #3 align 2 {
  tail call void @_ZN6google8protobuf8internal17AssignDescriptorsEPKNS1_15DescriptorTableEb(ptr noundef nonnull @descriptor_table_onnx_2eproto, i1 noundef zeroext false)
  %2 = load ptr, ptr getelementptr inbounds nuw (i8, ptr @descriptor_table_onnx_2eproto, i64 88), align 8, !tbaa !179
  %3 = getelementptr inbounds nuw i8, ptr %2, i64 48
  %.sroa.0.0.copyload.i = load ptr, ptr %3, align 8, !tbaa !191
  %.sroa.2.0..sroa_idx.i = getelementptr inbounds nuw i8, ptr %2, i64 56
  %.sroa.2.0.copyload.i = load ptr, ptr %.sroa.2.0..sroa_idx.i, align 8, !tbaa !193
  %.fca.0.insert.i = insertvalue { ptr, ptr } poison, ptr %.sroa.0.0.copyload.i, 0
  %.fca.1.insert.i = insertvalue { ptr, ptr } %.fca.0.insert.i, ptr %.sroa.2.0.copyload.i, 1
  ret { ptr, ptr } %.fca.1.insert.i
}